; Function Attrs: mustprogress nounwind uwtable
define dso_local void @_ZN4llvm18VLIWPacketizerList9endPacketEPNS_17MachineBasicBlockENS_26MachineInstrBundleIteratorINS_12MachineInstrELb0EEE(ptr noundef nonnull align 8 captures(none) dereferenceable(120) %0, ptr noundef %1, ptr %2) unnamed_addr #0 align 2 {
  %4 = getelementptr inbounds nuw i8, ptr %0, i64 40
  %5 = getelementptr inbounds nuw i8, ptr %0, i64 48
  %6 = load ptr, ptr %5, align 8
  %7 = load ptr, ptr %4, align 8
  %8 = ptrtoint ptr %6 to i64
  %9 = ptrtoint ptr %7 to i64
  %10 = sub i64 %8, %9
  %11 = icmp ugt i64 %10, 8
  br i1 %11, label %12, label %14

12:                                               ; preds = %3
  %13 = load ptr, ptr %7, align 8
  tail call void @_ZN4llvm14finalizeBundleERNS_17MachineBasicBlockENS_14ilist_iteratorINS_12ilist_detail12node_optionsINS_12MachineInstrELb1ELb1EvLb0EvEELb0ELb0EEES7_(ptr noundef nonnull align 8 dereferenceable(288) %1, ptr %13, ptr %2) #17
  %.pre = load ptr, ptr %4, align 8
  %.pre5 = load ptr, ptr %5, align 8
  br label %14

14:                                               ; preds = %12, %3
  %15 = phi ptr [ %.pre5, %12 ], [ %6, %3 ]
  %16 = phi ptr [ %.pre, %12 ], [ %7, %3 ]
  %.not.i.i = icmp eq ptr %15, %16
  br i1 %.not.i.i, label %_ZNSt6vectorIPN4llvm12MachineInstrESaIS2_EE5clearEv.exit, label %17

17:                                               ; preds = %14
  store ptr %16, ptr %5, align 8
  br label %_ZNSt6vectorIPN4llvm12MachineInstrESaIS2_EE5clearEv.exit

_ZNSt6vectorIPN4llvm12MachineInstrESaIS2_EE5clearEv.exit: ; preds = %14, %17
  %18 = getelementptr inbounds nuw i8, ptr %0, i64 64
  %19 = load ptr, ptr %18, align 8
  %20 = getelementptr inbounds nuw i8, ptr %19, i64 40
  store i64 1, ptr %20, align 8
  %21 = getelementptr inbounds nuw i8, ptr %19, i64 24
  %22 = load ptr, ptr %21, align 8
  %.not.i.i4 = icmp eq ptr %22, null
  br i1 %.not.i.i4, label %_ZN4llvm13DFAPacketizer14clearResourcesEv.exit, label %23

23:                                               ; preds = %_ZNSt6vectorIPN4llvm12MachineInstrESaIS2_EE5clearEv.exit
  tail call void @_ZN4llvm8internal14NfaTranscriber5resetEv(ptr noundef nonnull align 8 dereferenceable(400) %22)
  br label %_ZN4llvm13DFAPacketizer14clearResourcesEv.exit

_ZN4llvm13DFAPacketizer14clearResourcesEv.exit:   ; preds = %_ZNSt6vectorIPN4llvm12MachineInstrESaIS2_EE5clearEv.exit, %23
  ret void
}